target datalayout = "e-m:e-p270:32:32-p271:32:32-p272:64:64-i64:64-i128:128-f80:128-n8:16:32:64-S128"
target triple = "x86_64-pc-linux-gnu"

%struct.cli_bc_ctx = type { i8, i16, i32, ptr, ptr, i32, i32, ptr, ptr, ptr, i32, i32, i64, ptr, ptr, ptr, %struct.cli_bc_hooks, %struct.cli_exe_info, [64 x i32], [64 x i32], i32, ptr, ptr, i32, i32, i32, i32, ptr, i32, ptr, ptr, i32, i32, i32, i32, i32, i32, ptr, ptr, ptr, ptr, ptr, ptr, ptr, i32, i32, i32, i32, ptr, ptr, ptr, ptr, ptr, i32, i32, i32, i32, ptr, ptr, ptr, ptr, i32, i32, i32, ptr, i32, ptr, i32, i32, ptr, i32 }
%struct.cli_bc_hooks = type { ptr, ptr, ptr, ptr, ptr }
%struct.cli_exe_info = type { ptr, i32, i32, i16, i32, i32, %struct.cli_hashset, i32, i32, i32, i32, i32, i32, i32, i32, i32, %struct.pe_image_file_hdr, %union.anon, [16 x %struct.pe_image_data_dir] }
%struct.cli_hashset = type { ptr, ptr, ptr, i32, i32, i32, i32 }
%struct.pe_image_file_hdr = type { i32, i16, i16, i32, i32, i32, i16, i16 }
%union.anon = type { %struct.pe_image_optional_hdr64 }
%struct.pe_image_optional_hdr64 = type { i16, i8, i8, i32, i32, i32, i32, i32, i64, i32, i32, i16, i16, i16, i16, i16, i16, i32, i32, i32, i32, i16, i16, i64, i64, i64, i64, i32, i32 }
%struct.pe_image_data_dir = type { i32, i32 }
%struct.cl_fmap = type { ptr, ptr, ptr, i64, i64, i64, i64, i8, i8, i8, i64, i64, i64, i64, ptr, ptr, ptr, ptr, ptr, ptr, ptr, i8, [16 x i8], i8, [20 x i8], i8, [32 x i8], ptr, ptr }
%struct.bc_buffer = type { ptr, i32, i32, i32 }

@.str.135 = private unnamed_addr constant [36 x i8] c"bytecode api: invalid buffer id %u\0A\00", align 1

; Function Attrs: nounwind uwtable
define internal ptr @fmap_need_off(ptr noundef %0, i64 noundef %1, i64 noundef %2) #0 {
  %4 = alloca ptr, align 8
  %5 = alloca i64, align 8
  %6 = alloca i64, align 8
  store ptr %0, ptr %4, align 8
  store i64 %1, ptr %5, align 8
  store i64 %2, ptr %6, align 8
  %7 = load ptr, ptr %4, align 8
  %8 = getelementptr inbounds %struct.cl_fmap, ptr %7, i32 0, i32 15
  %9 = load ptr, ptr %8, align 8
  %10 = load ptr, ptr %4, align 8
  %11 = load i64, ptr %5, align 8
  %12 = load i64, ptr %6, align 8
  %13 = call ptr %9(ptr noundef %10, i64 noundef %11, i64 noundef %12, i32 noundef 1)
  ret ptr %13
}

; Function Attrs: nounwind uwtable
define i32 @cli_bcapi_buffer_pipe_read_avail(ptr noundef %0, i32 noundef %1) #0 {
  %3 = alloca i32, align 4
  %4 = alloca ptr, align 8
  %5 = alloca i32, align 4
  %6 = alloca ptr, align 8
  store ptr %0, ptr %4, align 8
  store i32 %1, ptr %5, align 4
  %7 = load ptr, ptr %4, align 8
  %8 = load i32, ptr %5, align 4
  %9 = call ptr @get_buffer(ptr noundef %7, i32 noundef %8)
  store ptr %9, ptr %6, align 8
  %10 = load ptr, ptr %6, align 8
  %11 = icmp ne ptr %10, null
  br i1 %11, label %13, label %12

12:                                               ; preds = %2
  store i32 0, ptr %3, align 4
  br label %67

13:                                               ; preds = %2
  %14 = load ptr, ptr %6, align 8
  %15 = getelementptr inbounds %struct.bc_buffer, ptr %14, i32 0, i32 0
  %16 = load ptr, ptr %15, align 8
  %17 = icmp ne ptr %16, null
  br i1 %17, label %18, label %35

18:                                               ; preds = %13
  %19 = load ptr, ptr %6, align 8
  %20 = getelementptr inbounds %struct.bc_buffer, ptr %19, i32 0, i32 2
  %21 = load i32, ptr %20, align 4
  %22 = load ptr, ptr %6, align 8
  %23 = getelementptr inbounds %struct.bc_buffer, ptr %22, i32 0, i32 3
  %24 = load i32, ptr %23, align 8
  %25 = icmp ule i32 %21, %24
  br i1 %25, label %26, label %27

26:                                               ; preds = %18
  store i32 0, ptr %3, align 4
  br label %67

27:                                               ; preds = %18
  %28 = load ptr, ptr %6, align 8
  %29 = getelementptr inbounds %struct.bc_buffer, ptr %28, i32 0, i32 2
  %30 = load i32, ptr %29, align 4
  %31 = load ptr, ptr %6, align 8
  %32 = getelementptr inbounds %struct.bc_buffer, ptr %31, i32 0, i32 3
  %33 = load i32, ptr %32, align 8
  %34 = sub i32 %30, %33
  store i32 %34, ptr %3, align 4
  br label %67

35:                                               ; preds = %13
  %36 = load ptr, ptr %4, align 8
  %37 = getelementptr inbounds %struct.cli_bc_ctx, ptr %36, i32 0, i32 13
  %38 = load ptr, ptr %37, align 8
  %39 = icmp ne ptr %38, null
  br i1 %39, label %40, label %48

40:                                               ; preds = %35
  %41 = load ptr, ptr %6, align 8
  %42 = getelementptr inbounds %struct.bc_buffer, ptr %41, i32 0, i32 3
  %43 = load i32, ptr %42, align 8
  %44 = load ptr, ptr %4, align 8
  %45 = getelementptr inbounds %struct.cli_bc_ctx, ptr %44, i32 0, i32 10
  %46 = load i32, ptr %45, align 8
  %47 = icmp uge i32 %43, %46
  br i1 %47, label %48, label %49

48:                                               ; preds = %40, %35
  store i32 0, ptr %3, align 4
  br label %67

49:                                               ; preds = %40
  %50 = load ptr, ptr %6, align 8
  %51 = getelementptr inbounds %struct.bc_buffer, ptr %50, i32 0, i32 3
  %52 = load i32, ptr %51, align 8
  %53 = add i32 %52, 8192
  %54 = load ptr, ptr %4, align 8
  %55 = getelementptr inbounds %struct.cli_bc_ctx, ptr %54, i32 0, i32 10
  %56 = load i32, ptr %55, align 8
  %57 = icmp ule i32 %53, %56
  br i1 %57, label %58, label %59

58:                                               ; preds = %49
  store i32 8192, ptr %3, align 4
  br label %67

59:                                               ; preds = %49
  %60 = load ptr, ptr %4, align 8
  %61 = getelementptr inbounds %struct.cli_bc_ctx, ptr %60, i32 0, i32 10
  %62 = load i32, ptr %61, align 8
  %63 = load ptr, ptr %6, align 8
  %64 = getelementptr inbounds %struct.bc_buffer, ptr %63, i32 0, i32 3
  %65 = load i32, ptr %64, align 8
  %66 = sub i32 %62, %65
  store i32 %66, ptr %3, align 4
  br label %67

67:                                               ; preds = %59, %58, %48, %27, %26, %12
  %68 = load i32, ptr %3, align 4
  ret i32 %68
}

; Function Attrs: nounwind uwtable
define internal ptr @get_buffer(ptr noundef %0, i32 noundef %1) #0 {
  %3 = alloca ptr, align 8
  %4 = alloca ptr, align 8
  %5 = alloca i32, align 4
  store ptr %0, ptr %4, align 8
  store i32 %1, ptr %5, align 4
  %6 = load ptr, ptr %4, align 8
  %7 = getelementptr inbounds %struct.cli_bc_ctx, ptr %6, i32 0, i32 52
  %8 = load ptr, ptr %7, align 8
  %9 = icmp ne ptr %8, null
  br i1 %9, label %10, label %19

10:                                               ; preds = %2
  %11 = load i32, ptr %5, align 4
  %12 = icmp slt i32 %11, 0
  br i1 %12, label %19, label %13

13:                                               ; preds = %10
  %14 = load i32, ptr %5, align 4
  %15 = load ptr, ptr %4, align 8
  %16 = getelementptr inbounds %struct.cli_bc_ctx, ptr %15, i32 0, i32 53
  %17 = load i32, ptr %16, align 8
  %18 = icmp uge i32 %14, %17
  br i1 %18, label %19, label %21

19:                                               ; preds = %13, %10, %2
  %20 = load i32, ptr %5, align 4
  call void (ptr, ...) @cli_dbgmsg(ptr noundef @.str.135, i32 noundef %20)
  store ptr null, ptr %3, align 8
  br label %28

21:                                               ; preds = %13
  %22 = load ptr, ptr %4, align 8
  %23 = getelementptr inbounds %struct.cli_bc_ctx, ptr %22, i32 0, i32 52
  %24 = load ptr, ptr %23, align 8
  %25 = load i32, ptr %5, align 4
  %26 = sext i32 %25 to i64
  %27 = getelementptr inbounds %struct.bc_buffer, ptr %24, i64 %26
  store ptr %27, ptr %3, align 8
  br label %28

28:                                               ; preds = %21, %19
  %29 = load ptr, ptr %3, align 8
  ret ptr %29
}

; Function Attrs: nounwind uwtable
define ptr @cli_bcapi_buffer_pipe_read_get(ptr noundef %0, i32 noundef %1, i32 noundef %2) #0 {
  %4 = alloca ptr, align 8
  %5 = alloca ptr, align 8
  %6 = alloca i32, align 4
  %7 = alloca i32, align 4
  %8 = alloca ptr, align 8
  store ptr %0, ptr %5, align 8
  store i32 %1, ptr %6, align 4
  store i32 %2, ptr %7, align 4
  %9 = load ptr, ptr %5, align 8
  %10 = load i32, ptr %6, align 4
  %11 = call ptr @get_buffer(ptr noundef %9, i32 noundef %10)
  store ptr %11, ptr %8, align 8
  %12 = load ptr, ptr %8, align 8
  %13 = icmp ne ptr %12, null
  br i1 %13, label %14, label %23

14:                                               ; preds = %3
  %15 = load i32, ptr %7, align 4
  %16 = load ptr, ptr %5, align 8
  %17 = load i32, ptr %6, align 4
  %18 = call i32 @cli_bcapi_buffer_pipe_read_avail(ptr noundef %16, i32 noundef %17)
  %19 = icmp ugt i32 %15, %18
  br i1 %19, label %23, label %20

20:                                               ; preds = %14
  %21 = load i32, ptr %7, align 4
  %22 = icmp ne i32 %21, 0
  br i1 %22, label %24, label %23

23:                                               ; preds = %20, %14, %3
  store ptr null, ptr %4, align 8
  br label %49

24:                                               ; preds = %20
  %25 = load ptr, ptr %8, align 8
  %26 = getelementptr inbounds %struct.bc_buffer, ptr %25, i32 0, i32 0
  %27 = load ptr, ptr %26, align 8
  %28 = icmp ne ptr %27, null
  br i1 %28, label %29, label %38

29:                                               ; preds = %24
  %30 = load ptr, ptr %8, align 8
  %31 = getelementptr inbounds %struct.bc_buffer, ptr %30, i32 0, i32 0
  %32 = load ptr, ptr %31, align 8
  %33 = load ptr, ptr %8, align 8
  %34 = getelementptr inbounds %struct.bc_buffer, ptr %33, i32 0, i32 3
  %35 = load i32, ptr %34, align 8
  %36 = zext i32 %35 to i64
  %37 = getelementptr inbounds i8, ptr %32, i64 %36
  store ptr %37, ptr %4, align 8
  br label %49

38:                                               ; preds = %24
  %39 = load ptr, ptr %5, align 8
  %40 = getelementptr inbounds %struct.cli_bc_ctx, ptr %39, i32 0, i32 13
  %41 = load ptr, ptr %40, align 8
  %42 = load ptr, ptr %8, align 8
  %43 = getelementptr inbounds %struct.bc_buffer, ptr %42, i32 0, i32 3
  %44 = load i32, ptr %43, align 8
  %45 = zext i32 %44 to i64
  %46 = load i32, ptr %7, align 4
  %47 = zext i32 %46 to i64
  %48 = call ptr @fmap_need_off(ptr noundef %41, i64 noundef %45, i64 noundef %47)
  store ptr %48, ptr %4, align 8
  br label %49

49:                                               ; preds = %38, %29, %23
  %50 = load ptr, ptr %4, align 8
  ret ptr %50
}