; Function Attrs: nounwind uwtable
define ptr @cli_bcapi_buffer_pipe_read_get(ptr nocapture noundef readonly %0, i32 noundef %1, i32 noundef %2) local_unnamed_addr #1 {
  %4 = getelementptr inbounds i8, ptr %0, i64 1224
  %5 = load ptr, ptr %4, align 8
  %6 = icmp eq ptr %5, null
  %7 = icmp slt i32 %1, 0
  %or.cond.i = or i1 %7, %6
  br i1 %or.cond.i, label %get_buffer.exit.thread, label %8

8:                                                ; preds = %3
  %9 = getelementptr inbounds i8, ptr %0, i64 1232
  %10 = load i32, ptr %9, align 8
  %.not.i = icmp ugt i32 %10, %1
  br i1 %.not.i, label %get_buffer.exit.i, label %get_buffer.exit.thread

get_buffer.exit.thread:                           ; preds = %3, %8
  tail call void (ptr, ...) @cli_dbgmsg(ptr noundef nonnull @.str.135, i32 noundef %1) #29
  br label %cli_bcapi_buffer_pipe_read_avail.exit.thread

get_buffer.exit.i:                                ; preds = %8
  %11 = zext nneg i32 %1 to i64
  %12 = getelementptr inbounds %struct.bc_buffer, ptr %5, i64 %11
  %13 = load ptr, ptr %12, align 8
  %.not20.i = icmp eq ptr %13, null
  br i1 %.not20.i, label %14, label %cli_bcapi_buffer_pipe_read_avail.exit.thread23

14:                                               ; preds = %get_buffer.exit.i
  %15 = getelementptr inbounds i8, ptr %0, i64 72
  %16 = load ptr, ptr %15, align 8
  %.not21.i = icmp eq ptr %16, null
  br i1 %.not21.i, label %cli_bcapi_buffer_pipe_read_avail.exit.thread, label %17

17:                                               ; preds = %14
  %18 = getelementptr inbounds i8, ptr %12, i64 16
  %19 = load i32, ptr %18, align 8
  %20 = getelementptr inbounds i8, ptr %0, i64 56
  %21 = load i32, ptr %20, align 8
  %.not22.i = icmp ult i32 %19, %21
  br i1 %.not22.i, label %cli_bcapi_buffer_pipe_read_avail.exit, label %cli_bcapi_buffer_pipe_read_avail.exit.thread

cli_bcapi_buffer_pipe_read_avail.exit:            ; preds = %17
  %22 = add i32 %19, 8192
  %.not23.i = icmp ugt i32 %22, %21
  %23 = sub i32 %21, %19
  %spec.select25.i = select i1 %.not23.i, i32 %23, i32 8192
  %24 = add i32 %2, -1
  %or.cond = icmp ult i32 %24, %spec.select25.i
  br i1 %or.cond, label %30, label %cli_bcapi_buffer_pipe_read_avail.exit.thread

cli_bcapi_buffer_pipe_read_avail.exit.thread23:   ; preds = %get_buffer.exit.i
  %25 = getelementptr inbounds i8, ptr %12, i64 12
  %26 = load i32, ptr %25, align 4
  %27 = getelementptr inbounds i8, ptr %12, i64 16
  %28 = load i32, ptr %27, align 8
  %spec.select.i = tail call i32 @llvm.usub.sat.i32(i32 %26, i32 %28)
  %29 = add i32 %2, -1
  %or.cond25 = icmp ult i32 %29, %spec.select.i
  br i1 %or.cond25, label %.thread, label %cli_bcapi_buffer_pipe_read_avail.exit.thread

30:                                               ; preds = %cli_bcapi_buffer_pipe_read_avail.exit
  br i1 %.not20.i, label %34, label %.thread

.thread:                                          ; preds = %cli_bcapi_buffer_pipe_read_avail.exit.thread23, %30
  %31 = phi i32 [ %19, %30 ], [ %28, %cli_bcapi_buffer_pipe_read_avail.exit.thread23 ]
  %32 = zext i32 %31 to i64
  %33 = getelementptr inbounds i8, ptr %13, i64 %32
  br label %cli_bcapi_buffer_pipe_read_avail.exit.thread

34:                                               ; preds = %30
  %35 = getelementptr inbounds i8, ptr %0, i64 72
  %36 = load ptr, ptr %35, align 8
  %37 = zext i32 %19 to i64
  %38 = zext i32 %2 to i64
  %39 = getelementptr inbounds i8, ptr %36, i64 104
  %40 = load ptr, ptr %39, align 8
  %41 = tail call ptr %40(ptr noundef %36, i64 noundef %37, i64 noundef %38, i32 noundef 1) #29
  br label %cli_bcapi_buffer_pipe_read_avail.exit.thread

cli_bcapi_buffer_pipe_read_avail.exit.thread:     ; preds = %cli_bcapi_buffer_pipe_read_avail.exit.thread23, %14, %17, %get_buffer.exit.thread, %cli_bcapi_buffer_pipe_read_avail.exit, %34, %.thread
  %.0 = phi ptr [ %33, %.thread ], [ %41, %34 ], [ null, %cli_bcapi_buffer_pipe_read_avail.exit ], [ null, %get_buffer.exit.thread ], [ null, %17 ], [ null, %14 ], [ null, %cli_bcapi_buffer_pipe_read_avail.exit.thread23 ]
  ret ptr %.0
}